target datalayout = "e-m:e-p270:32:32-p271:32:32-p272:64:64-i64:64-i128:128-f80:128-n8:16:32:64-S128"
target triple = "x86_64-unknown-linux-gnu"

%"class.smt::case_split_queue" = type { ptr }
%class.ptr_vector = type { %class.vector.3 }
%class.vector.3 = type { ptr }
%"class.(anonymous namespace)::rel_case_split_queue" = type { %"class.smt::case_split_queue", ptr, ptr, ptr, %class.ptr_vector, i32, i32, %class.ptr_vector, i32, %class.svector.302 }
%class.svector.302 = type { %class.vector.303 }
%class.vector.303 = type { ptr }

@.str.18 = private unnamed_addr constant [14 x i8] c"case-splits:\0A\00", align 1

; Function Attrs: mustprogress nounwind uwtable
define linkonce_odr hidden noundef zeroext i1 @_ZNK6vectorIP4exprLb0EjE5emptyEv(ptr noundef nonnull align 8 dereferenceable(8) %this) #4 comdat align 2 {
entry:
  %this.addr = alloca ptr, align 8
  store ptr %this, ptr %this.addr, align 8
  %this1 = load ptr, ptr %this.addr, align 8
  %m_data = getelementptr inbounds %class.vector.3, ptr %this1, i32 0, i32 0
  %0 = load ptr, ptr %m_data, align 8
  %cmp = icmp eq ptr %0, null
  br i1 %cmp, label %lor.end, label %lor.rhs

lor.rhs:                                          ; preds = %entry
  %m_data2 = getelementptr inbounds %class.vector.3, ptr %this1, i32 0, i32 0
  %1 = load ptr, ptr %m_data2, align 8
  %arrayidx = getelementptr inbounds i32, ptr %1, i64 -1
  %2 = load i32, ptr %arrayidx, align 4
  %cmp3 = icmp eq i32 %2, 0
  br label %lor.end

lor.end:                                          ; preds = %lor.rhs, %entry
  %3 = phi i1 [ true, %entry ], [ %cmp3, %lor.rhs ]
  ret i1 %3
}

; Function Attrs: mustprogress uwtable
define internal void @_ZN12_GLOBAL__N_120rel_case_split_queue7displayERSo(ptr noundef nonnull align 8 dereferenceable(72) %this, ptr noundef nonnull align 8 dereferenceable(8) %out) unnamed_addr #5 align 2 {
entry:
  %this.addr = alloca ptr, align 8
  %out.addr = alloca ptr, align 8
  store ptr %this, ptr %this.addr, align 8
  store ptr %out, ptr %out.addr, align 8
  %this1 = load ptr, ptr %this.addr, align 8
  %m_queue = getelementptr inbounds %"class.(anonymous namespace)::rel_case_split_queue", ptr %this1, i32 0, i32 4
  %call = call noundef zeroext i1 @_ZNK6vectorIP4exprLb0EjE5emptyEv(ptr noundef nonnull align 8 dereferenceable(8) %m_queue)
  br i1 %call, label %land.lhs.true, label %if.end

land.lhs.true:                                    ; preds = %entry
  %m_queue2 = getelementptr inbounds %"class.(anonymous namespace)::rel_case_split_queue", ptr %this1, i32 0, i32 7
  %call2 = call noundef zeroext i1 @_ZNK6vectorIP4exprLb0EjE5emptyEv(ptr noundef nonnull align 8 dereferenceable(8) %m_queue2)
  br i1 %call2, label %if.then, label %if.end

if.then:                                          ; preds = %land.lhs.true
  br label %return

if.end:                                           ; preds = %land.lhs.true, %entry
  %0 = load ptr, ptr %out.addr, align 8
  %call3 = call noundef nonnull align 8 dereferenceable(8) ptr @_ZStlsISt11char_traitsIcEERSt13basic_ostreamIcT_ES5_PKc(ptr noundef nonnull align 8 dereferenceable(8) %0, ptr noundef @.str.18)
  %1 = load ptr, ptr %out.addr, align 8
  %m_queue4 = getelementptr inbounds %"class.(anonymous namespace)::rel_case_split_queue", ptr %this1, i32 0, i32 4
  %m_head = getelementptr inbounds %"class.(anonymous namespace)::rel_case_split_queue", ptr %this1, i32 0, i32 5
  %2 = load i32, ptr %m_head, align 8
  call void @_ZN12_GLOBAL__N_120rel_case_split_queue12display_coreERSoR10ptr_vectorI4exprEjj(ptr noundef nonnull align 8 dereferenceable(72) %this1, ptr noundef nonnull align 8 dereferenceable(8) %1, ptr noundef nonnull align 8 dereferenceable(8) %m_queue4, i32 noundef %2, i32 noundef 1)
  %3 = load ptr, ptr %out.addr, align 8
  %m_queue25 = getelementptr inbounds %"class.(anonymous namespace)::rel_case_split_queue", ptr %this1, i32 0, i32 7
  %m_head2 = getelementptr inbounds %"class.(anonymous namespace)::rel_case_split_queue", ptr %this1, i32 0, i32 8
  %4 = load i32, ptr %m_head2, align 8
  call void @_ZN12_GLOBAL__N_120rel_case_split_queue12display_coreERSoR10ptr_vectorI4exprEjj(ptr noundef nonnull align 8 dereferenceable(72) %this1, ptr noundef nonnull align 8 dereferenceable(8) %3, ptr noundef nonnull align 8 dereferenceable(8) %m_queue25, i32 noundef %4, i32 noundef 2)
  br label %return

return:                                           ; preds = %if.end, %if.then
  ret void
}