; Function Attrs: mustprogress uwtable
define internal void @_ZN12_GLOBAL__N_120rel_case_split_queue7displayERSo(ptr nocapture noundef nonnull readonly align 8 dereferenceable(72) %this, ptr noundef nonnull align 8 dereferenceable(8) %out) unnamed_addr #3 align 2 {
entry:
  %m_queue = getelementptr inbounds i8, ptr %this, i64 32
  %0 = load ptr, ptr %m_queue, align 8
  %cmp.i = icmp eq ptr %0, null
  br i1 %cmp.i, label %land.lhs.true, label %_ZNK6vectorIP4exprLb0EjE5emptyEv.exit

_ZNK6vectorIP4exprLb0EjE5emptyEv.exit:            ; preds = %entry
  %arrayidx.i = getelementptr inbounds i8, ptr %0, i64 -4
  %1 = load i32, ptr %arrayidx.i, align 4
  %cmp3.i = icmp eq i32 %1, 0
  br i1 %cmp3.i, label %land.lhs.true, label %if.end

land.lhs.true:                                    ; preds = %entry, %_ZNK6vectorIP4exprLb0EjE5emptyEv.exit
  %m_queue2 = getelementptr inbounds i8, ptr %this, i64 48
  %2 = load ptr, ptr %m_queue2, align 8
  %cmp.i3 = icmp eq ptr %2, null
  br i1 %cmp.i3, label %return, label %_ZNK6vectorIP4exprLb0EjE5emptyEv.exit7

_ZNK6vectorIP4exprLb0EjE5emptyEv.exit7:           ; preds = %land.lhs.true
  %arrayidx.i5 = getelementptr inbounds i8, ptr %2, i64 -4
  %3 = load i32, ptr %arrayidx.i5, align 4
  %cmp3.i6 = icmp eq i32 %3, 0
  br i1 %cmp3.i6, label %return, label %if.end

if.end:                                           ; preds = %_ZNK6vectorIP4exprLb0EjE5emptyEv.exit7, %_ZNK6vectorIP4exprLb0EjE5emptyEv.exit
  %call3 = tail call noundef nonnull align 8 dereferenceable(8) ptr @_ZStlsISt11char_traitsIcEERSt13basic_ostreamIcT_ES5_PKc(ptr noundef nonnull align 8 dereferenceable(8) %out, ptr noundef nonnull @.str.18)
  %m_head = getelementptr inbounds i8, ptr %this, i64 40
  %4 = load i32, ptr %m_head, align 8
  tail call fastcc void @_ZN12_GLOBAL__N_120rel_case_split_queue12display_coreERSoR10ptr_vectorI4exprEjj(ptr noundef nonnull align 8 dereferenceable(8) %out, ptr noundef nonnull align 8 dereferenceable(8) %m_queue, i32 noundef %4, i32 noundef 1)
  %m_queue25 = getelementptr inbounds i8, ptr %this, i64 48
  %m_head2 = getelementptr inbounds i8, ptr %this, i64 56
  %5 = load i32, ptr %m_head2, align 8
  tail call fastcc void @_ZN12_GLOBAL__N_120rel_case_split_queue12display_coreERSoR10ptr_vectorI4exprEjj(ptr noundef nonnull align 8 dereferenceable(8) %out, ptr noundef nonnull align 8 dereferenceable(8) %m_queue25, i32 noundef %5, i32 noundef 2)
  br label %return

return:                                           ; preds = %land.lhs.true, %_ZNK6vectorIP4exprLb0EjE5emptyEv.exit7, %if.end
  ret void
}